; Function Attrs: mustprogress nofree norecurse nosync nounwind willreturn memory(readwrite, inaccessiblemem: none) uwtable
define zeroext i1 @ff_vvc_run_copy_flag(ptr noundef readonly captures(none) %0, i32 noundef %1, i32 noundef %2, i32 noundef %3) local_unnamed_addr #2 {
  %5 = xor i32 %2, -1
  %6 = add i32 %3, %5
  %7 = icmp eq i32 %1, 1
  %8 = icmp slt i32 %6, 5
  br i1 %8, label %9, label %14

9:                                                ; preds = %4
  %10 = select i1 %7, ptr @__const.ff_vvc_run_copy_flag.run_top_lut, ptr @__const.ff_vvc_run_copy_flag.run_left_lut
  %11 = sext i32 %6 to i64
  %12 = getelementptr inbounds i8, ptr %10, i64 %11
  %13 = load i8, ptr %12, align 1, !tbaa !97
  br label %16

14:                                               ; preds = %4
  %15 = select i1 %7, i8 7, i8 4
  br label %16

16:                                               ; preds = %14, %9
  %17 = phi i8 [ %13, %9 ], [ %15, %14 ]
  %18 = getelementptr inbounds nuw i8, ptr %0, i64 4580560
  %19 = load ptr, ptr %18, align 16, !tbaa !67
  %20 = getelementptr inbounds nuw i8, ptr %19, i64 2672
  %21 = zext i8 %17 to i64
  %22 = getelementptr i8, ptr %19, i64 1072
  %23 = getelementptr %struct.VVCCabacState, ptr %22, i64 %21
  %24 = getelementptr inbounds nuw i8, ptr %19, i64 2676
  %25 = load i32, ptr %24, align 4, !tbaa !100
  %26 = ashr i32 %25, 5
  %27 = getelementptr inbounds nuw i8, ptr %23, i64 2
  %28 = load i16, ptr %27, align 2, !tbaa !58
  %29 = zext i16 %28 to i32
  %30 = load i16, ptr %23, align 2, !tbaa !58
  %31 = zext i16 %30 to i32
  %32 = shl nuw nsw i32 %31, 4
  %33 = add nuw nsw i32 %32, %29
  %.not.i = icmp samesign ult i32 %33, 16384
  %34 = sub nsw i32 32767, %33
  %35 = select i1 %.not.i, i32 %33, i32 %34
  %36 = ashr i32 %35, 9
  %37 = mul nsw i32 %36, %26
  %38 = ashr i32 %37, 1
  %39 = add nsw i32 %38, 4
  %40 = sub nsw i32 %25, %39
  %41 = shl i32 %40, 17
  %42 = load i32, ptr %20, align 8, !tbaa !70
  %43 = icmp slt i32 %41, %42
  %44 = select i1 %43, i32 %41, i32 0
  %45 = sub nsw i32 %42, %44
  %46 = select i1 %43, i32 %39, i32 %40
  %47 = sext i32 %46 to i64
  %48 = getelementptr inbounds i8, ptr @ff_h264_cabac_tables, i64 %47
  %49 = load i8, ptr %48, align 1, !tbaa !97
  %50 = zext i8 %49 to i32
  %51 = shl i32 %46, %50
  store i32 %51, ptr %24, align 4, !tbaa !100
  %52 = shl i32 %45, %50
  store i32 %52, ptr %20, align 8, !tbaa !70
  %53 = and i32 %52, 65535
  %.not42.i = icmp eq i32 %53, 0
  br i1 %.not42.i, label %54, label %vvc_get_cabac.exit

54:                                               ; preds = %16
  %55 = add nsw i32 %52, -1
  %56 = xor i32 %55, %52
  %57 = lshr i32 %56, 15
  %58 = zext nneg i32 %57 to i64
  %59 = getelementptr inbounds nuw i8, ptr @ff_h264_cabac_tables, i64 %58
  %60 = load i8, ptr %59, align 1, !tbaa !97
  %61 = zext i8 %60 to i32
  %62 = sub nsw i32 7, %61
  %63 = getelementptr inbounds nuw i8, ptr %19, i64 2688
  %64 = load ptr, ptr %63, align 8, !tbaa !68
  %65 = load i8, ptr %64, align 1, !tbaa !97
  %66 = zext i8 %65 to i32
  %67 = shl nuw nsw i32 %66, 9
  %68 = getelementptr inbounds nuw i8, ptr %64, i64 1
  %69 = load i8, ptr %68, align 1, !tbaa !97
  %70 = zext i8 %69 to i32
  %71 = shl nuw nsw i32 %70, 1
  %72 = or disjoint i32 %71, %67
  %73 = add nsw i32 %72, -65535
  %74 = shl nsw i32 %73, %62
  %75 = add i32 %74, %52
  store i32 %75, ptr %20, align 8, !tbaa !70
  %76 = getelementptr inbounds nuw i8, ptr %19, i64 2696
  %77 = load ptr, ptr %76, align 8, !tbaa !71
  %78 = icmp ult ptr %64, %77
  br i1 %78, label %79, label %vvc_get_cabac.exit

79:                                               ; preds = %54
  %80 = getelementptr inbounds nuw i8, ptr %64, i64 2
  store ptr %80, ptr %63, align 8, !tbaa !68
  br label %vvc_get_cabac.exit

vvc_get_cabac.exit:                               ; preds = %16, %54, %79
  %81 = lshr i32 %33, 14
  %82 = zext i1 %43 to i32
  %83 = xor i32 %81, %82
  %84 = getelementptr inbounds nuw i8, ptr %23, i64 4
  %85 = load i8, ptr %84, align 2, !tbaa !97
  %86 = zext i8 %85 to i32
  %87 = lshr i32 %31, %86
  %88 = sub nsw i32 %31, %87
  %89 = mul nuw nsw i32 %83, 1023
  %90 = lshr i32 %89, %86
  %91 = add nsw i32 %88, %90
  %92 = trunc i32 %91 to i16
  store i16 %92, ptr %23, align 2, !tbaa !58
  %93 = getelementptr inbounds nuw i8, ptr %23, i64 5
  %94 = load i8, ptr %93, align 1, !tbaa !97
  %95 = zext i8 %94 to i32
  %96 = lshr i32 %29, %95
  %97 = sub nsw i32 %29, %96
  %98 = mul nuw nsw i32 %83, 16383
  %99 = lshr i32 %98, %95
  %100 = add nsw i32 %97, %99
  %101 = trunc i32 %100 to i16
  store i16 %101, ptr %27, align 2, !tbaa !58
  %102 = icmp ne i32 %81, %82
  ret i1 %102
}